target datalayout = "e-m:e-p270:32:32-p271:32:32-p272:64:64-i64:64-i128:128-f80:128-n8:16:32:64-S128"
target triple = "x86_64-pc-linux-gnu"

%"class.perf::TestBase" = type { %"class.testing::Test", %"class.std::vector.76", %"class.std::vector.76", i32, %"class.std::vector.81", i64, i64, i64, i32, i32, i32, i32, i32, [4 x i8], %"struct.perf::performance_metrics", i8, %"class.perf::TestBase::_declareHelper" }
%"class.testing::Test" = type { ptr, %"class.testing::internal::scoped_ptr.75" }
%"class.testing::internal::scoped_ptr.75" = type { ptr }
%"class.std::vector.76" = type { %"struct.std::_Vector_base.77" }
%"struct.std::_Vector_base.77" = type { %"struct.std::_Vector_base<std::pair<int, cv::Size_<int>>, std::allocator<std::pair<int, cv::Size_<int>>>>::_Vector_impl" }
%"struct.std::_Vector_base<std::pair<int, cv::Size_<int>>, std::allocator<std::pair<int, cv::Size_<int>>>>::_Vector_impl" = type { %"struct.std::_Vector_base<std::pair<int, cv::Size_<int>>, std::allocator<std::pair<int, cv::Size_<int>>>>::_Vector_impl_data" }
%"struct.std::_Vector_base<std::pair<int, cv::Size_<int>>, std::allocator<std::pair<int, cv::Size_<int>>>>::_Vector_impl_data" = type { ptr, ptr, ptr }
%"class.std::vector.81" = type { %"struct.std::_Vector_base.82" }
%"struct.std::_Vector_base.82" = type { %"struct.std::_Vector_base<long, std::allocator<long>>::_Vector_impl" }
%"struct.std::_Vector_base<long, std::allocator<long>>::_Vector_impl" = type { %"struct.std::_Vector_base<long, std::allocator<long>>::_Vector_impl_data" }
%"struct.std::_Vector_base<long, std::allocator<long>>::_Vector_impl_data" = type { ptr, ptr, ptr }
%"struct.perf::performance_metrics" = type <{ i64, i64, i32, i32, double, double, double, double, double, double, double, i32, [4 x i8] }>
%"class.perf::TestBase::_declareHelper" = type { ptr }

@_ZTVN4perf8TestBaseE = external unnamed_addr constant { [9 x ptr] }, align 8

; Function Attrs: mustprogress nounwind uwtable
define linkonce_odr hidden void @_ZNSt15__new_allocatorISt4pairIiN2cv5Size_IiEEEE10deallocateEPS4_m(ptr noundef nonnull align 1 dereferenceable(1) %0, ptr noundef %1, i64 noundef %2) #7 comdat align 2 {
  %4 = alloca ptr, align 8
  %5 = alloca ptr, align 8
  %6 = alloca i64, align 8
  store ptr %0, ptr %4, align 8, !tbaa !199
  store ptr %1, ptr %5, align 8, !tbaa !193
  store i64 %2, ptr %6, align 8, !tbaa !78
  %7 = load ptr, ptr %5, align 8, !tbaa !193
  call void @_ZdlPv(ptr noundef %7) #26
  ret void
}

; Function Attrs: mustprogress nounwind uwtable
define linkonce_odr hidden void @_ZNSt15__new_allocatorIlE10deallocateEPlm(ptr noundef nonnull align 1 dereferenceable(1) %0, ptr noundef %1, i64 noundef %2) #7 comdat align 2 {
  %4 = alloca ptr, align 8
  %5 = alloca ptr, align 8
  %6 = alloca i64, align 8
  store ptr %0, ptr %4, align 8, !tbaa !191
  store ptr %1, ptr %5, align 8, !tbaa !119
  store i64 %2, ptr %6, align 8, !tbaa !78
  %7 = load ptr, ptr %5, align 8, !tbaa !119
  call void @_ZdlPv(ptr noundef %7) #26
  ret void
}

; Function Attrs: mustprogress uwtable
define linkonce_odr hidden void @_ZNSt16allocator_traitsISaISt4pairIiN2cv5Size_IiEEEEE10deallocateERS5_PS4_m(ptr noundef nonnull align 1 dereferenceable(1) %0, ptr noundef %1, i64 noundef %2) #6 comdat align 2 {
  %4 = alloca ptr, align 8
  %5 = alloca ptr, align 8
  %6 = alloca i64, align 8
  store ptr %0, ptr %4, align 8, !tbaa !194
  store ptr %1, ptr %5, align 8, !tbaa !193
  store i64 %2, ptr %6, align 8, !tbaa !78
  %7 = load ptr, ptr %4, align 8, !tbaa !194
  %8 = load ptr, ptr %5, align 8, !tbaa !193
  %9 = load i64, ptr %6, align 8, !tbaa !78
  call void @_ZNSt15__new_allocatorISt4pairIiN2cv5Size_IiEEEE10deallocateEPS4_m(ptr noundef nonnull align 1 dereferenceable(1) %7, ptr noundef %8, i64 noundef %9)
  ret void
}

; Function Attrs: mustprogress nounwind uwtable
define linkonce_odr hidden void @_ZNSt12_Destroy_auxILb1EE9__destroyIPSt4pairIiN2cv5Size_IiEEEEEvT_S8_(ptr noundef %0, ptr noundef %1) #7 comdat align 2 {
  %3 = alloca ptr, align 8
  %4 = alloca ptr, align 8
  store ptr %0, ptr %3, align 8, !tbaa !193
  store ptr %1, ptr %4, align 8, !tbaa !193
  ret void
}

; Function Attrs: mustprogress uwtable
define linkonce_odr hidden void @_ZNSt16allocator_traitsISaIlEE10deallocateERS0_Plm(ptr noundef nonnull align 1 dereferenceable(1) %0, ptr noundef %1, i64 noundef %2) #6 comdat align 2 {
  %4 = alloca ptr, align 8
  %5 = alloca ptr, align 8
  %6 = alloca i64, align 8
  store ptr %0, ptr %4, align 8, !tbaa !186
  store ptr %1, ptr %5, align 8, !tbaa !119
  store i64 %2, ptr %6, align 8, !tbaa !78
  %7 = load ptr, ptr %4, align 8, !tbaa !186
  %8 = load ptr, ptr %5, align 8, !tbaa !119
  %9 = load i64, ptr %6, align 8, !tbaa !78
  call void @_ZNSt15__new_allocatorIlE10deallocateEPlm(ptr noundef nonnull align 1 dereferenceable(1) %7, ptr noundef %8, i64 noundef %9)
  ret void
}

; Function Attrs: mustprogress nounwind uwtable
define linkonce_odr hidden void @_ZNSt12_Destroy_auxILb1EE9__destroyIPlEEvT_S3_(ptr noundef %0, ptr noundef %1) #7 comdat align 2 {
  %3 = alloca ptr, align 8
  %4 = alloca ptr, align 8
  store ptr %0, ptr %3, align 8, !tbaa !119
  store ptr %1, ptr %4, align 8, !tbaa !119
  ret void
}

; Function Attrs: mustprogress nounwind uwtable
define linkonce_odr hidden void @_ZNSt15__new_allocatorISt4pairIiN2cv5Size_IiEEEED2Ev(ptr noundef nonnull align 1 dereferenceable(1) %0) unnamed_addr #7 comdat align 2 {
  %2 = alloca ptr, align 8
  store ptr %0, ptr %2, align 8, !tbaa !199
  ret void
}

; Function Attrs: mustprogress uwtable
define linkonce_odr hidden void @_ZNSt12_Vector_baseISt4pairIiN2cv5Size_IiEEESaIS4_EE13_M_deallocateEPS4_m(ptr noundef nonnull align 8 dereferenceable(24) %0, ptr noundef %1, i64 noundef %2) #6 comdat align 2 {
  %4 = alloca ptr, align 8
  %5 = alloca ptr, align 8
  %6 = alloca i64, align 8
  store ptr %0, ptr %4, align 8, !tbaa !196
  store ptr %1, ptr %5, align 8, !tbaa !193
  store i64 %2, ptr %6, align 8, !tbaa !78
  %7 = load ptr, ptr %4, align 8
  %8 = load ptr, ptr %5, align 8, !tbaa !193
  %9 = icmp ne ptr %8, null
  br i1 %9, label %10, label %14

10:                                               ; preds = %3
  %11 = getelementptr inbounds nuw %"struct.std::_Vector_base.77", ptr %7, i32 0, i32 0
  %12 = load ptr, ptr %5, align 8, !tbaa !193
  %13 = load i64, ptr %6, align 8, !tbaa !78
  call void @_ZNSt16allocator_traitsISaISt4pairIiN2cv5Size_IiEEEEE10deallocateERS5_PS4_m(ptr noundef nonnull align 1 dereferenceable(1) %11, ptr noundef %12, i64 noundef %13)
  br label %14

14:                                               ; preds = %10, %3
  ret void
}

; Function Attrs: inlinehint mustprogress uwtable
define linkonce_odr hidden void @_ZSt8_DestroyIPSt4pairIiN2cv5Size_IiEEEEvT_S6_(ptr noundef %0, ptr noundef %1) #10 comdat {
  %3 = alloca ptr, align 8
  %4 = alloca ptr, align 8
  store ptr %0, ptr %3, align 8, !tbaa !193
  store ptr %1, ptr %4, align 8, !tbaa !193
  %5 = load ptr, ptr %3, align 8, !tbaa !193
  %6 = load ptr, ptr %4, align 8, !tbaa !193
  call void @_ZNSt12_Destroy_auxILb1EE9__destroyIPSt4pairIiN2cv5Size_IiEEEEEvT_S8_(ptr noundef %5, ptr noundef %6)
  ret void
}

; Function Attrs: mustprogress nounwind uwtable
define linkonce_odr hidden void @_ZNSt15__new_allocatorIlED2Ev(ptr noundef nonnull align 1 dereferenceable(1) %0) unnamed_addr #7 comdat align 2 {
  %2 = alloca ptr, align 8
  store ptr %0, ptr %2, align 8, !tbaa !191
  ret void
}

; Function Attrs: mustprogress uwtable
define linkonce_odr hidden void @_ZNSt12_Vector_baseIlSaIlEE13_M_deallocateEPlm(ptr noundef nonnull align 8 dereferenceable(24) %0, ptr noundef %1, i64 noundef %2) #6 comdat align 2 {
  %4 = alloca ptr, align 8
  %5 = alloca ptr, align 8
  %6 = alloca i64, align 8
  store ptr %0, ptr %4, align 8, !tbaa !188
  store ptr %1, ptr %5, align 8, !tbaa !119
  store i64 %2, ptr %6, align 8, !tbaa !78
  %7 = load ptr, ptr %4, align 8
  %8 = load ptr, ptr %5, align 8, !tbaa !119
  %9 = icmp ne ptr %8, null
  br i1 %9, label %10, label %14

10:                                               ; preds = %3
  %11 = getelementptr inbounds nuw %"struct.std::_Vector_base.82", ptr %7, i32 0, i32 0
  %12 = load ptr, ptr %5, align 8, !tbaa !119
  %13 = load i64, ptr %6, align 8, !tbaa !78
  call void @_ZNSt16allocator_traitsISaIlEE10deallocateERS0_Plm(ptr noundef nonnull align 1 dereferenceable(1) %11, ptr noundef %12, i64 noundef %13)
  br label %14

14:                                               ; preds = %10, %3
  ret void
}

; Function Attrs: inlinehint mustprogress uwtable
define linkonce_odr dso_local void @_ZSt8_DestroyIPlEvT_S1_(ptr noundef %0, ptr noundef %1) #10 comdat {
  %3 = alloca ptr, align 8
  %4 = alloca ptr, align 8
  store ptr %0, ptr %3, align 8, !tbaa !119
  store ptr %1, ptr %4, align 8, !tbaa !119
  %5 = load ptr, ptr %3, align 8, !tbaa !119
  %6 = load ptr, ptr %4, align 8, !tbaa !119
  call void @_ZNSt12_Destroy_auxILb1EE9__destroyIPlEEvT_S3_(ptr noundef %5, ptr noundef %6)
  ret void
}

; Function Attrs: mustprogress nounwind uwtable
define linkonce_odr hidden void @_ZNSt12_Vector_baseISt4pairIiN2cv5Size_IiEEESaIS4_EED2Ev(ptr noundef nonnull align 8 dereferenceable(24) %0) unnamed_addr #7 comdat align 2 personality ptr @__gxx_personality_v0 {
  %2 = alloca ptr, align 8
  store ptr %0, ptr %2, align 8, !tbaa !196
  %3 = load ptr, ptr %2, align 8
  %4 = getelementptr inbounds nuw %"struct.std::_Vector_base.77", ptr %3, i32 0, i32 0
  %5 = getelementptr inbounds nuw %"struct.std::_Vector_base<std::pair<int, cv::Size_<int>>, std::allocator<std::pair<int, cv::Size_<int>>>>::_Vector_impl_data", ptr %4, i32 0, i32 0
  %6 = load ptr, ptr %5, align 8, !tbaa !184
  %7 = getelementptr inbounds nuw %"struct.std::_Vector_base.77", ptr %3, i32 0, i32 0
  %8 = getelementptr inbounds nuw %"struct.std::_Vector_base<std::pair<int, cv::Size_<int>>, std::allocator<std::pair<int, cv::Size_<int>>>>::_Vector_impl_data", ptr %7, i32 0, i32 2
  %9 = load ptr, ptr %8, align 8, !tbaa !198
  %10 = getelementptr inbounds nuw %"struct.std::_Vector_base.77", ptr %3, i32 0, i32 0
  %11 = getelementptr inbounds nuw %"struct.std::_Vector_base<std::pair<int, cv::Size_<int>>, std::allocator<std::pair<int, cv::Size_<int>>>>::_Vector_impl_data", ptr %10, i32 0, i32 0
  %12 = load ptr, ptr %11, align 8, !tbaa !184
  %13 = ptrtoint ptr %9 to i64
  %14 = ptrtoint ptr %12 to i64
  %15 = sub i64 %13, %14
  %16 = sdiv exact i64 %15, 12
  invoke void @_ZNSt12_Vector_baseISt4pairIiN2cv5Size_IiEEESaIS4_EE13_M_deallocateEPS4_m(ptr noundef nonnull align 8 dereferenceable(24) %3, ptr noundef %6, i64 noundef %16)
          to label %17 unwind label %19

17:                                               ; preds = %1
  %18 = getelementptr inbounds nuw %"struct.std::_Vector_base.77", ptr %3, i32 0, i32 0
  call void @_ZNSt15__new_allocatorISt4pairIiN2cv5Size_IiEEEED2Ev(ptr noundef nonnull align 8 dereferenceable(24) %18) #3
  ret void

19:                                               ; preds = %1
  %20 = landingpad { ptr, i32 }
          catch ptr null
  %21 = extractvalue { ptr, i32 } %20, 0
  call void @__clang_call_terminate(ptr %21) #28
  unreachable
}

; Function Attrs: inlinehint mustprogress uwtable
define linkonce_odr hidden void @_ZSt8_DestroyIPSt4pairIiN2cv5Size_IiEEES4_EvT_S6_RSaIT0_E(ptr noundef %0, ptr noundef %1, ptr noundef nonnull align 1 dereferenceable(1) %2) #10 comdat {
  %4 = alloca ptr, align 8
  %5 = alloca ptr, align 8
  %6 = alloca ptr, align 8
  store ptr %0, ptr %4, align 8, !tbaa !193
  store ptr %1, ptr %5, align 8, !tbaa !193
  store ptr %2, ptr %6, align 8, !tbaa !194
  %7 = load ptr, ptr %4, align 8, !tbaa !193
  %8 = load ptr, ptr %5, align 8, !tbaa !193
  call void @_ZSt8_DestroyIPSt4pairIiN2cv5Size_IiEEEEvT_S6_(ptr noundef %7, ptr noundef %8)
  ret void
}

; Function Attrs: mustprogress nounwind uwtable
define linkonce_odr hidden noundef nonnull align 1 dereferenceable(1) ptr @_ZNSt12_Vector_baseISt4pairIiN2cv5Size_IiEEESaIS4_EE19_M_get_Tp_allocatorEv(ptr noundef nonnull align 8 dereferenceable(24) %0) #7 comdat align 2 {
  %2 = alloca ptr, align 8
  store ptr %0, ptr %2, align 8, !tbaa !196
  %3 = load ptr, ptr %2, align 8
  %4 = getelementptr inbounds nuw %"struct.std::_Vector_base.77", ptr %3, i32 0, i32 0
  ret ptr %4
}

; Function Attrs: noinline noreturn nounwind uwtable
define linkonce_odr hidden void @__clang_call_terminate(ptr noundef %0) #12 comdat {
  %2 = call ptr @__cxa_begin_catch(ptr %0) #3
  call void @_ZSt9terminatev() #28
  unreachable
}

; Function Attrs: mustprogress nounwind uwtable
define linkonce_odr hidden void @_ZNSt12_Vector_baseIlSaIlEED2Ev(ptr noundef nonnull align 8 dereferenceable(24) %0) unnamed_addr #7 comdat align 2 personality ptr @__gxx_personality_v0 {
  %2 = alloca ptr, align 8
  store ptr %0, ptr %2, align 8, !tbaa !188
  %3 = load ptr, ptr %2, align 8
  %4 = getelementptr inbounds nuw %"struct.std::_Vector_base.82", ptr %3, i32 0, i32 0
  %5 = getelementptr inbounds nuw %"struct.std::_Vector_base<long, std::allocator<long>>::_Vector_impl_data", ptr %4, i32 0, i32 0
  %6 = load ptr, ptr %5, align 8, !tbaa !180
  %7 = getelementptr inbounds nuw %"struct.std::_Vector_base.82", ptr %3, i32 0, i32 0
  %8 = getelementptr inbounds nuw %"struct.std::_Vector_base<long, std::allocator<long>>::_Vector_impl_data", ptr %7, i32 0, i32 2
  %9 = load ptr, ptr %8, align 8, !tbaa !190
  %10 = getelementptr inbounds nuw %"struct.std::_Vector_base.82", ptr %3, i32 0, i32 0
  %11 = getelementptr inbounds nuw %"struct.std::_Vector_base<long, std::allocator<long>>::_Vector_impl_data", ptr %10, i32 0, i32 0
  %12 = load ptr, ptr %11, align 8, !tbaa !180
  %13 = ptrtoint ptr %9 to i64
  %14 = ptrtoint ptr %12 to i64
  %15 = sub i64 %13, %14
  %16 = sdiv exact i64 %15, 8
  invoke void @_ZNSt12_Vector_baseIlSaIlEE13_M_deallocateEPlm(ptr noundef nonnull align 8 dereferenceable(24) %3, ptr noundef %6, i64 noundef %16)
          to label %17 unwind label %19

17:                                               ; preds = %1
  %18 = getelementptr inbounds nuw %"struct.std::_Vector_base.82", ptr %3, i32 0, i32 0
  call void @_ZNSt15__new_allocatorIlED2Ev(ptr noundef nonnull align 8 dereferenceable(24) %18) #3
  ret void

19:                                               ; preds = %1
  %20 = landingpad { ptr, i32 }
          catch ptr null
  %21 = extractvalue { ptr, i32 } %20, 0
  call void @__clang_call_terminate(ptr %21) #28
  unreachable
}

; Function Attrs: inlinehint mustprogress uwtable
define linkonce_odr dso_local void @_ZSt8_DestroyIPllEvT_S1_RSaIT0_E(ptr noundef %0, ptr noundef %1, ptr noundef nonnull align 1 dereferenceable(1) %2) #10 comdat {
  %4 = alloca ptr, align 8
  %5 = alloca ptr, align 8
  %6 = alloca ptr, align 8
  store ptr %0, ptr %4, align 8, !tbaa !119
  store ptr %1, ptr %5, align 8, !tbaa !119
  store ptr %2, ptr %6, align 8, !tbaa !186
  %7 = load ptr, ptr %4, align 8, !tbaa !119
  %8 = load ptr, ptr %5, align 8, !tbaa !119
  call void @_ZSt8_DestroyIPlEvT_S1_(ptr noundef %7, ptr noundef %8)
  ret void
}

; Function Attrs: mustprogress nounwind uwtable
define linkonce_odr hidden noundef nonnull align 1 dereferenceable(1) ptr @_ZNSt12_Vector_baseIlSaIlEE19_M_get_Tp_allocatorEv(ptr noundef nonnull align 8 dereferenceable(24) %0) #7 comdat align 2 {
  %2 = alloca ptr, align 8
  store ptr %0, ptr %2, align 8, !tbaa !188
  %3 = load ptr, ptr %2, align 8
  %4 = getelementptr inbounds nuw %"struct.std::_Vector_base.82", ptr %3, i32 0, i32 0
  ret ptr %4
}

; Function Attrs: mustprogress nounwind uwtable
define linkonce_odr hidden void @_ZNSt6vectorISt4pairIiN2cv5Size_IiEEESaIS4_EED2Ev(ptr noundef nonnull align 8 dereferenceable(24) %0) unnamed_addr #7 comdat align 2 personality ptr @__gxx_personality_v0 {
  %2 = alloca ptr, align 8
  store ptr %0, ptr %2, align 8, !tbaa !182
  %3 = load ptr, ptr %2, align 8
  %4 = getelementptr inbounds nuw %"struct.std::_Vector_base.77", ptr %3, i32 0, i32 0
  %5 = getelementptr inbounds nuw %"struct.std::_Vector_base<std::pair<int, cv::Size_<int>>, std::allocator<std::pair<int, cv::Size_<int>>>>::_Vector_impl_data", ptr %4, i32 0, i32 0
  %6 = load ptr, ptr %5, align 8, !tbaa !184
  %7 = getelementptr inbounds nuw %"struct.std::_Vector_base.77", ptr %3, i32 0, i32 0
  %8 = getelementptr inbounds nuw %"struct.std::_Vector_base<std::pair<int, cv::Size_<int>>, std::allocator<std::pair<int, cv::Size_<int>>>>::_Vector_impl_data", ptr %7, i32 0, i32 1
  %9 = load ptr, ptr %8, align 8, !tbaa !185
  %10 = call noundef nonnull align 1 dereferenceable(1) ptr @_ZNSt12_Vector_baseISt4pairIiN2cv5Size_IiEEESaIS4_EE19_M_get_Tp_allocatorEv(ptr noundef nonnull align 8 dereferenceable(24) %3) #3
  invoke void @_ZSt8_DestroyIPSt4pairIiN2cv5Size_IiEEES4_EvT_S6_RSaIT0_E(ptr noundef %6, ptr noundef %9, ptr noundef nonnull align 1 dereferenceable(1) %10)
          to label %11 unwind label %12

11:                                               ; preds = %1
  call void @_ZNSt12_Vector_baseISt4pairIiN2cv5Size_IiEEESaIS4_EED2Ev(ptr noundef nonnull align 8 dereferenceable(24) %3) #3
  ret void

12:                                               ; preds = %1
  %13 = landingpad { ptr, i32 }
          catch ptr null
  %14 = extractvalue { ptr, i32 } %13, 0
  call void @__clang_call_terminate(ptr %14) #28
  unreachable
}

; Function Attrs: mustprogress nounwind uwtable
define linkonce_odr hidden void @_ZNSt6vectorIlSaIlEED2Ev(ptr noundef nonnull align 8 dereferenceable(24) %0) unnamed_addr #7 comdat align 2 personality ptr @__gxx_personality_v0 {
  %2 = alloca ptr, align 8
  store ptr %0, ptr %2, align 8, !tbaa !178
  %3 = load ptr, ptr %2, align 8
  %4 = getelementptr inbounds nuw %"struct.std::_Vector_base.82", ptr %3, i32 0, i32 0
  %5 = getelementptr inbounds nuw %"struct.std::_Vector_base<long, std::allocator<long>>::_Vector_impl_data", ptr %4, i32 0, i32 0
  %6 = load ptr, ptr %5, align 8, !tbaa !180
  %7 = getelementptr inbounds nuw %"struct.std::_Vector_base.82", ptr %3, i32 0, i32 0
  %8 = getelementptr inbounds nuw %"struct.std::_Vector_base<long, std::allocator<long>>::_Vector_impl_data", ptr %7, i32 0, i32 1
  %9 = load ptr, ptr %8, align 8, !tbaa !181
  %10 = call noundef nonnull align 1 dereferenceable(1) ptr @_ZNSt12_Vector_baseIlSaIlEE19_M_get_Tp_allocatorEv(ptr noundef nonnull align 8 dereferenceable(24) %3) #3
  invoke void @_ZSt8_DestroyIPllEvT_S1_RSaIT0_E(ptr noundef %6, ptr noundef %9, ptr noundef nonnull align 1 dereferenceable(1) %10)
          to label %11 unwind label %12

11:                                               ; preds = %1
  call void @_ZNSt12_Vector_baseIlSaIlEED2Ev(ptr noundef nonnull align 8 dereferenceable(24) %3) #3
  ret void

12:                                               ; preds = %1
  %13 = landingpad { ptr, i32 }
          catch ptr null
  %14 = extractvalue { ptr, i32 } %13, 0
  call void @__clang_call_terminate(ptr %14) #28
  unreachable
}

; Function Attrs: inlinehint mustprogress nounwind uwtable
define linkonce_odr hidden void @_ZN4perf8TestBaseD2Ev(ptr noundef nonnull align 8 dereferenceable(248) %0) unnamed_addr #4 comdat align 2 {
  %2 = alloca ptr, align 8
  store ptr %0, ptr %2, align 8, !tbaa !177
  %3 = load ptr, ptr %2, align 8
  store ptr getelementptr inbounds inrange(-16, 56) ({ [9 x ptr] }, ptr @_ZTVN4perf8TestBaseE, i32 0, i32 0, i32 2), ptr %3, align 8, !tbaa !24
  %4 = getelementptr inbounds nuw %"class.perf::TestBase", ptr %3, i32 0, i32 4
  call void @_ZNSt6vectorIlSaIlEED2Ev(ptr noundef nonnull align 8 dereferenceable(24) %4) #3
  %5 = getelementptr inbounds nuw %"class.perf::TestBase", ptr %3, i32 0, i32 2
  call void @_ZNSt6vectorISt4pairIiN2cv5Size_IiEEESaIS4_EED2Ev(ptr noundef nonnull align 8 dereferenceable(24) %5) #3
  %6 = getelementptr inbounds nuw %"class.perf::TestBase", ptr %3, i32 0, i32 1
  call void @_ZNSt6vectorISt4pairIiN2cv5Size_IiEEESaIS4_EED2Ev(ptr noundef nonnull align 8 dereferenceable(24) %6) #3
  call void @_ZN7testing4TestD2Ev(ptr noundef nonnull align 8 dereferenceable(16) %3) #3
  ret void
}

; Function Attrs: mustprogress nounwind uwtable
define linkonce_odr hidden void @_ZN7testing18WithParamInterfaceImED2Ev(ptr noundef nonnull align 8 dereferenceable(8) %0) unnamed_addr #7 comdat align 2 {
  %2 = alloca ptr, align 8
  store ptr %0, ptr %2, align 8, !tbaa !175
  ret void
}

; Function Attrs: inlinehint mustprogress nounwind uwtable
define linkonce_odr hidden void @_ZN4perf17TestBaseWithParamImED2Ev(ptr noundef nonnull align 8 dereferenceable(256) %0) unnamed_addr #4 comdat align 2 {
  %2 = alloca ptr, align 8
  store ptr %0, ptr %2, align 8, !tbaa !173
  %3 = load ptr, ptr %2, align 8
  %4 = getelementptr inbounds i8, ptr %3, i64 248
  call void @_ZN7testing18WithParamInterfaceImED2Ev(ptr noundef nonnull align 8 dereferenceable(8) %4) #3
  call void @_ZN4perf8TestBaseD2Ev(ptr noundef nonnull align 8 dereferenceable(248) %3) #3
  ret void
}

; Function Attrs: inlinehint nounwind uwtable
define internal void @_ZThn248_N11opencv_test12_GLOBAL__N_135VectorLength_phase64f_phase64f_TestD1Ev(ptr noundef %0) unnamed_addr #16 align 2 {
  %2 = alloca ptr, align 8
  store ptr %0, ptr %2, align 8, !tbaa !359
  %3 = load ptr, ptr %2, align 8
  %4 = getelementptr inbounds i8, ptr %3, i64 -248
  tail call void @_ZN4perf17TestBaseWithParamImED2Ev(ptr noundef nonnull align 8 dereferenceable(257) %4) #3
  ret void
}